; ModuleID = '23/1210.c'
source_filename = "23/1210.c"
target datalayout = "e-m:e-p270:32:32-p271:32:32-p272:64:64-i64:64-f80:128-n8:16:32:64-S128"
target triple = "x86_64-pc-linux-gnu"

@.str = private unnamed_addr constant [3 x i8] c"%c\00", align 1

; Function Attrs: noinline nounwind uwtable
define dso_local void @main() #0 {
  %1 = alloca i32, align 4
  %2 = alloca i32, align 4
  %3 = alloca i32, align 4
  %4 = alloca i32, align 4
  %5 = alloca i32, align 4
  %6 = alloca [101 x i8], align 16
  %7 = getelementptr inbounds [101 x i8], [101 x i8]* %6, i64 0, i64 0
  %8 = call i32 (i8*, ...) bitcast (i32 (...)* @gets to i32 (i8*, ...)*)(i8* %7)
  %9 = getelementptr inbounds [101 x i8], [101 x i8]* %6, i64 0, i64 0
  %10 = call i64 @strlen(i8* %9) #3
  %11 = trunc i64 %10 to i32
  store i32 %11, i32* %1, align 4
  store i32 0, i32* %2, align 4
  br label %12

12:                                               ; preds = %32, %0
  %13 = load i32, i32* %2, align 4
  %14 = load i32, i32* %1, align 4
  %15 = icmp slt i32 %13, %14
  br i1 %15, label %16, label %35

16:                                               ; preds = %12
  %17 = load i32, i32* %2, align 4
  %18 = sext i32 %17 to i64
  %19 = getelementptr inbounds [101 x i8], [101 x i8]* %6, i64 0, i64 %18
  %20 = load i8, i8* %19, align 1
  %21 = sext i8 %20 to i32
  %22 = icmp eq i32 %21, 32
  br i1 %22, label %23, label %25

23:                                               ; preds = %16
  %24 = load i32, i32* %2, align 4
  store i32 %24, i32* %5, align 4
  br label %35

25:                                               ; preds = %16
  %26 = load i32, i32* %1, align 4
  %27 = sub nsw i32 %26, 1
  store i32 %27, i32* %2, align 4
  %28 = icmp ne i32 %27, 0
  br i1 %28, label %29, label %31

29:                                               ; preds = %25
  %30 = load i32, i32* %1, align 4
  store i32 %30, i32* %5, align 4
  br label %31

31:                                               ; preds = %29, %25
  br label %32

32:                                               ; preds = %31
  %33 = load i32, i32* %2, align 4
  %34 = add nsw i32 %33, 1
  store i32 %34, i32* %2, align 4
  br label %12

35:                                               ; preds = %23, %12
  %36 = load i32, i32* %1, align 4
  %37 = sub nsw i32 %36, 1
  store i32 %37, i32* %2, align 4
  br label %38

38:                                               ; preds = %85, %35
  %39 = load i32, i32* %2, align 4
  %40 = icmp sge i32 %39, 0
  br i1 %40, label %41, label %88

41:                                               ; preds = %38
  %42 = load i32, i32* %2, align 4
  store i32 %42, i32* %3, align 4
  br label %43

43:                                               ; preds = %55, %41
  %44 = load i32, i32* %3, align 4
  %45 = icmp sge i32 %44, 0
  br i1 %45, label %46, label %58

46:                                               ; preds = %43
  %47 = load i32, i32* %3, align 4
  %48 = sext i32 %47 to i64
  %49 = getelementptr inbounds [101 x i8], [101 x i8]* %6, i64 0, i64 %48
  %50 = load i8, i8* %49, align 1
  %51 = sext i8 %50 to i32
  %52 = icmp eq i32 %51, 32
  br i1 %52, label %53, label %54

53:                                               ; preds = %46
  br label %58

54:                                               ; preds = %46
  br label %55

55:                                               ; preds = %54
  %56 = load i32, i32* %3, align 4
  %57 = add nsw i32 %56, -1
  store i32 %57, i32* %3, align 4
  br label %43

58:                                               ; preds = %53, %43
  %59 = load i32, i32* %3, align 4
  %60 = add nsw i32 %59, 1
  store i32 %60, i32* %4, align 4
  br label %61

61:                                               ; preds = %72, %58
  %62 = load i32, i32* %4, align 4
  %63 = load i32, i32* %2, align 4
  %64 = icmp sle i32 %62, %63
  br i1 %64, label %65, label %75

65:                                               ; preds = %61
  %66 = load i32, i32* %4, align 4
  %67 = sext i32 %66 to i64
  %68 = getelementptr inbounds [101 x i8], [101 x i8]* %6, i64 0, i64 %67
  %69 = load i8, i8* %68, align 1
  %70 = sext i8 %69 to i32
  %71 = call i32 (i8*, ...) @printf(i8* getelementptr inbounds ([3 x i8], [3 x i8]* @.str, i64 0, i64 0), i32 %70)
  br label %72

72:                                               ; preds = %65
  %73 = load i32, i32* %4, align 4
  %74 = add nsw i32 %73, 1
  store i32 %74, i32* %4, align 4
  br label %61

75:                                               ; preds = %61
  %76 = load i32, i32* %3, align 4
  %77 = icmp sge i32 %76, 0
  br i1 %77, label %78, label %85

78:                                               ; preds = %75
  %79 = load i32, i32* %3, align 4
  %80 = sext i32 %79 to i64
  %81 = getelementptr inbounds [101 x i8], [101 x i8]* %6, i64 0, i64 %80
  %82 = load i8, i8* %81, align 1
  %83 = sext i8 %82 to i32
  %84 = call i32 (i8*, ...) @printf(i8* getelementptr inbounds ([3 x i8], [3 x i8]* @.str, i64 0, i64 0), i32 %83)
  br label %85

85:                                               ; preds = %78, %75
  %86 = load i32, i32* %3, align 4
  %87 = sub nsw i32 %86, 1
  store i32 %87, i32* %2, align 4
  br label %38

88:                                               ; preds = %38
  ret void
}

declare dso_local i32 @gets(...) #1

; Function Attrs: nounwind readonly
declare dso_local i64 @strlen(i8*) #2

declare dso_local i32 @printf(i8*, ...) #1


!llvm.module.flags = !{!0}
!llvm.ident = !{!1}

!0 = !{i32 1, !"wchar_size", i32 4}
!1 = !{!"clang version 10.0.0-4ubuntu1 "}
