; ModuleID = 'source-C-CXX/22/1210.c'
source_filename = "source-C-CXX/22/1210.c"
target datalayout = "e-m:e-p270:32:32-p271:32:32-p272:64:64-i64:64-f80:128-n8:16:32:64-S128"
target triple = "x86_64-pc-linux-gnu"

; Function Attrs: nounwind sspstrong uwtable
define dso_local void @main() local_unnamed_addr #0 {
  %1 = alloca [101 x i8], align 16
  %2 = getelementptr inbounds [101 x i8], [101 x i8]* %1, i64 0, i64 0
  call void @llvm.lifetime.start.p0i8(i64 101, i8* nonnull %2) #5
  %3 = call i32 (i8*, ...) bitcast (i32 (...)* @gets to i32 (i8*, ...)*)(i8* nonnull %2) #5
  %4 = call i64 @strlen(i8* noundef nonnull %2) #6
  %5 = trunc i64 %4 to i32
  %6 = icmp sgt i32 %5, 0
  br i1 %6, label %7, label %42

7:                                                ; preds = %0, %40
  %8 = phi i32 [ %20, %40 ], [ %5, %0 ]
  %9 = add nsw i32 %8, -1
  br label %10

10:                                               ; preds = %7, %16
  %11 = phi i32 [ %17, %16 ], [ %9, %7 ]
  %12 = zext i32 %11 to i64
  %13 = getelementptr inbounds [101 x i8], [101 x i8]* %1, i64 0, i64 %12
  %14 = load i8, i8* %13, align 1, !tbaa !5
  %15 = icmp eq i8 %14, 32
  br i1 %15, label %19, label %16

16:                                               ; preds = %10
  %17 = add nsw i32 %11, -1
  %18 = icmp sgt i32 %11, 0
  br i1 %18, label %10, label %19, !llvm.loop !8

19:                                               ; preds = %16, %10
  %20 = phi i32 [ -1, %16 ], [ %11, %10 ]
  %21 = icmp slt i32 %20, %9
  br i1 %21, label %22, label %33

22:                                               ; preds = %19
  %23 = sext i32 %20 to i64
  %24 = sext i32 %9 to i64
  br label %25

25:                                               ; preds = %22, %25
  %26 = phi i64 [ %23, %22 ], [ %27, %25 ]
  %27 = add nsw i64 %26, 1
  %28 = getelementptr inbounds [101 x i8], [101 x i8]* %1, i64 0, i64 %27
  %29 = load i8, i8* %28, align 1, !tbaa !5
  %30 = sext i8 %29 to i32
  %31 = call i32 @putchar(i32 %30)
  %32 = icmp eq i64 %27, %24
  br i1 %32, label %33, label %25, !llvm.loop !10

33:                                               ; preds = %25, %19
  br i1 %15, label %34, label %40

34:                                               ; preds = %33
  %35 = zext i32 %20 to i64
  %36 = getelementptr inbounds [101 x i8], [101 x i8]* %1, i64 0, i64 %35
  %37 = load i8, i8* %36, align 1, !tbaa !5
  %38 = sext i8 %37 to i32
  %39 = call i32 @putchar(i32 %38)
  br label %40

40:                                               ; preds = %34, %33
  %41 = icmp sgt i32 %20, 0
  br i1 %41, label %7, label %42, !llvm.loop !11

42:                                               ; preds = %40, %0
  call void @llvm.lifetime.end.p0i8(i64 101, i8* nonnull %2) #5
  ret void
}

; Function Attrs: argmemonly mustprogress nofree nosync nounwind willreturn
declare void @llvm.lifetime.start.p0i8(i64 immarg, i8* nocapture) #1

declare i32 @gets(...) local_unnamed_addr #2

; Function Attrs: argmemonly mustprogress nofree nounwind readonly willreturn
declare i64 @strlen(i8* nocapture) local_unnamed_addr #3

; Function Attrs: argmemonly mustprogress nofree nosync nounwind willreturn
declare void @llvm.lifetime.end.p0i8(i64 immarg, i8* nocapture) #1

; Function Attrs: nofree nounwind
declare noundef i32 @putchar(i32 noundef) local_unnamed_addr #4


!llvm.module.flags = !{!0, !1, !2, !3}
!llvm.ident = !{!4}

!0 = !{i32 1, !"wchar_size", i32 4}
!1 = !{i32 7, !"PIC Level", i32 2}
!2 = !{i32 7, !"PIE Level", i32 2}
!3 = !{i32 7, !"uwtable", i32 1}
!4 = !{!"clang version 13.0.0"}
!5 = !{!6, !6, i64 0}
!6 = !{!"omnipotent char", !7, i64 0}
!7 = !{!"Simple C/C++ TBAA"}
!8 = distinct !{!8, !9}
!9 = !{!"llvm.loop.mustprogress"}
!10 = distinct !{!10, !9}
!11 = distinct !{!11, !9}
